target datalayout = "e-m:e-p270:32:32-p271:32:32-p272:64:64-i64:64-i128:128-f80:128-n8:16:32:64-S128"
target triple = "x86_64-unknown-linux-gnu"

%"class.proxygen::HTTPParallelCodec" = type <{ %"class.proxygen::HTTPCodec", i8, [7 x i8], i64, i64, ptr, i64, i64, %"class.std::__cxx11::basic_string", i32, [4 x i8] }>
%"class.proxygen::HTTPCodec" = type { ptr }
%"class.std::__cxx11::basic_string" = type { %"struct.std::__cxx11::basic_string<char>::_Alloc_hider", i64, %union.anon }
%"struct.std::__cxx11::basic_string<char>::_Alloc_hider" = type { ptr }
%union.anon = type { i64, [8 x i8] }

; Function Attrs: mustprogress nounwind uwtable
define noundef zeroext i1 @_ZN8proxygen17HTTPParallelCodec23onIngressUpgradeMessageERKNS_11HTTPMessageE(ptr noundef nonnull align 8 dereferenceable(92) %this, ptr noundef nonnull align 8 dereferenceable(616) %0) unnamed_addr #5 align 2 {
entry:
  %this.addr = alloca ptr, align 8
  %.addr = alloca ptr, align 8
  store ptr %this, ptr %this.addr, align 8
  store ptr %0, ptr %.addr, align 8
  %this1 = load ptr, ptr %this.addr, align 8
  %transportDirection_ = getelementptr inbounds %"class.proxygen::HTTPParallelCodec", ptr %this1, i32 0, i32 1
  %1 = load i8, ptr %transportDirection_, align 8
  %cmp = icmp eq i8 %1, 0
  br i1 %cmp, label %if.then, label %if.end

if.then:                                          ; preds = %entry
  %lastStreamID_ = getelementptr inbounds %"class.proxygen::HTTPParallelCodec", ptr %this1, i32 0, i32 4
  store i64 1, ptr %lastStreamID_, align 8
  br label %if.end

if.end:                                           ; preds = %if.then, %entry
  ret i1 true
}