; Function Attrs: mustprogress nofree norecurse nosync nounwind willreturn memory(argmem: readwrite) uwtable
define noundef zeroext i1 @_ZN8proxygen17HTTPParallelCodec23onIngressUpgradeMessageERKNS_11HTTPMessageE(ptr nocapture noundef nonnull align 8 dereferenceable(92) %this, ptr nocapture nonnull readnone align 8 %0) unnamed_addr #5 align 2 {
entry:
  %transportDirection_ = getelementptr inbounds i8, ptr %this, i64 8
  %1 = load i8, ptr %transportDirection_, align 8
  %cmp = icmp eq i8 %1, 0
  br i1 %cmp, label %if.then, label %if.end

if.then:                                          ; preds = %entry
  %lastStreamID_ = getelementptr inbounds i8, ptr %this, i64 24
  store i64 1, ptr %lastStreamID_, align 8
  br label %if.end

if.end:                                           ; preds = %if.then, %entry
  ret i1 true
}